; Function Attrs: nounwind uwtable
define i32 @Gla_ManCountPPis(ptr noundef readonly captures(none) %0) local_unnamed_addr #0 {
  %2 = tail call fastcc ptr @Gla_ManCollectPPis(ptr noundef %0)
  %3 = getelementptr i8, ptr %2, i64 4
  %.val = load i32, ptr %3, align 4, !tbaa !3
  %4 = getelementptr inbounds nuw i8, ptr %2, i64 8
  %5 = load ptr, ptr %4, align 8, !tbaa !11
  %.not.i = icmp eq ptr %5, null
  br i1 %.not.i, label %Vec_IntFree.exit, label %6

6:                                                ; preds = %1
  tail call void @free(ptr noundef nonnull %5) #29
  br label %Vec_IntFree.exit

Vec_IntFree.exit:                                 ; preds = %1, %6
  tail call void @free(ptr noundef nonnull %2) #29
  ret i32 %.val
}